target datalayout = "e-m:e-p270:32:32-p271:32:32-p272:64:64-i64:64-i128:128-f80:128-n8:16:32:64-S128"
target triple = "x86_64-pc-linux-gnu"

%"class.llvm::SmallVectorBase" = type { ptr, i32, i32 }
%"struct.clang::ODRDiagsEmitter::DiffResult" = type { ptr, ptr, i32, i32 }
%class.anon.515 = type { i8 }
%"struct.std::pair" = type <{ ptr, i32, [4 x i8] }>

; Function Attrs: mustprogress nounwind uwtable
define linkonce_odr hidden noundef ptr @_ZN4llvm25SmallVectorTemplateCommonISt4pairIPKN5clang4DeclEjEvE3endEv(ptr noundef nonnull align 8 dereferenceable(16) %0) #0 comdat align 2 {
  %2 = alloca ptr, align 8
  store ptr %0, ptr %2, align 8
  %3 = load ptr, ptr %2, align 8
  %4 = call noundef ptr @_ZN4llvm25SmallVectorTemplateCommonISt4pairIPKN5clang4DeclEjEvE5beginEv(ptr noundef nonnull align 8 dereferenceable(16) %3)
  %5 = call noundef i64 @_ZNK4llvm15SmallVectorBaseIjE4sizeEv(ptr noundef nonnull align 8 dereferenceable(16) %3)
  %6 = getelementptr inbounds %"struct.std::pair", ptr %4, i64 %5
  ret ptr %6
}

; Function Attrs: mustprogress nounwind uwtable
define linkonce_odr hidden noundef ptr @_ZN4llvm25SmallVectorTemplateCommonISt4pairIPKN5clang4DeclEjEvE5beginEv(ptr noundef nonnull align 8 dereferenceable(16) %0) #0 comdat align 2 {
  %2 = alloca ptr, align 8
  store ptr %0, ptr %2, align 8
  %3 = load ptr, ptr %2, align 8
  %4 = getelementptr inbounds nuw %"class.llvm::SmallVectorBase", ptr %3, i32 0, i32 0
  %5 = load ptr, ptr %4, align 8
  ret ptr %5
}

; Function Attrs: mustprogress nounwind uwtable
define linkonce_odr hidden void @_ZN5clang15ODRDiagsEmitter10DiffResultC2Ev(ptr noundef nonnull align 8 dereferenceable(24) %0) unnamed_addr #0 comdat align 2 {
  %2 = alloca ptr, align 8
  store ptr %0, ptr %2, align 8
  %3 = load ptr, ptr %2, align 8
  %4 = getelementptr inbounds nuw %"struct.clang::ODRDiagsEmitter::DiffResult", ptr %3, i32 0, i32 0
  store ptr null, ptr %4, align 8
  %5 = getelementptr inbounds nuw %"struct.clang::ODRDiagsEmitter::DiffResult", ptr %3, i32 0, i32 1
  store ptr null, ptr %5, align 8
  %6 = getelementptr inbounds nuw %"struct.clang::ODRDiagsEmitter::DiffResult", ptr %3, i32 0, i32 2
  store i32 15, ptr %6, align 8
  %7 = getelementptr inbounds nuw %"struct.clang::ODRDiagsEmitter::DiffResult", ptr %3, i32 0, i32 3
  store i32 15, ptr %7, align 4
  ret void
}

; Function Attrs: mustprogress nounwind uwtable
define dso_local void @_ZN5clang15ODRDiagsEmitter13FindTypeDiffsERN4llvm11SmallVectorISt4pairIPKNS_4DeclEjELj4EEES9_(ptr dead_on_unwind noalias writable sret(%"struct.clang::ODRDiagsEmitter::DiffResult") align 8 %0, ptr noundef nonnull align 8 dereferenceable(80) %1, ptr noundef nonnull align 8 dereferenceable(80) %2) #0 align 2 {
  %4 = alloca ptr, align 8
  %5 = alloca ptr, align 8
  %6 = alloca %class.anon.515, align 1
  %7 = alloca ptr, align 8
  %8 = alloca ptr, align 8
  store ptr %1, ptr %4, align 8
  store ptr %2, ptr %5, align 8
  call void @_ZN5clang15ODRDiagsEmitter10DiffResultC2Ev(ptr noundef nonnull align 8 dereferenceable(24) %0) #10
  %9 = load ptr, ptr %4, align 8
  %10 = call noundef ptr @_ZN4llvm25SmallVectorTemplateCommonISt4pairIPKN5clang4DeclEjEvE5beginEv(ptr noundef nonnull align 8 dereferenceable(16) %9)
  store ptr %10, ptr %7, align 8
  %11 = load ptr, ptr %5, align 8
  %12 = call noundef ptr @_ZN4llvm25SmallVectorTemplateCommonISt4pairIPKN5clang4DeclEjEvE5beginEv(ptr noundef nonnull align 8 dereferenceable(16) %11)
  store ptr %12, ptr %8, align 8
  br label %13

13:                                               ; preds = %43, %3
  %14 = load ptr, ptr %7, align 8
  %15 = load ptr, ptr %4, align 8
  %16 = call noundef ptr @_ZN4llvm25SmallVectorTemplateCommonISt4pairIPKN5clang4DeclEjEvE3endEv(ptr noundef nonnull align 8 dereferenceable(16) %15)
  %17 = icmp ne ptr %14, %16
  br i1 %17, label %23, label %18

18:                                               ; preds = %13
  %19 = load ptr, ptr %8, align 8
  %20 = load ptr, ptr %5, align 8
  %21 = call noundef ptr @_ZN4llvm25SmallVectorTemplateCommonISt4pairIPKN5clang4DeclEjEvE3endEv(ptr noundef nonnull align 8 dereferenceable(16) %20)
  %22 = icmp ne ptr %19, %21
  br label %23

23:                                               ; preds = %18, %13
  %24 = phi i1 [ true, %13 ], [ %22, %18 ]
  br i1 %24, label %25, label %95

25:                                               ; preds = %23
  %26 = load ptr, ptr %7, align 8
  %27 = load ptr, ptr %4, align 8
  %28 = call noundef ptr @_ZN4llvm25SmallVectorTemplateCommonISt4pairIPKN5clang4DeclEjEvE3endEv(ptr noundef nonnull align 8 dereferenceable(16) %27)
  %29 = icmp ne ptr %26, %28
  br i1 %29, label %30, label %48

30:                                               ; preds = %25
  %31 = load ptr, ptr %8, align 8
  %32 = load ptr, ptr %5, align 8
  %33 = call noundef ptr @_ZN4llvm25SmallVectorTemplateCommonISt4pairIPKN5clang4DeclEjEvE3endEv(ptr noundef nonnull align 8 dereferenceable(16) %32)
  %34 = icmp ne ptr %31, %33
  br i1 %34, label %35, label %48

35:                                               ; preds = %30
  %36 = load ptr, ptr %7, align 8
  %37 = getelementptr inbounds nuw %"struct.std::pair", ptr %36, i32 0, i32 1
  %38 = load i32, ptr %37, align 8
  %39 = load ptr, ptr %8, align 8
  %40 = getelementptr inbounds nuw %"struct.std::pair", ptr %39, i32 0, i32 1
  %41 = load i32, ptr %40, align 8
  %42 = icmp eq i32 %38, %41
  br i1 %42, label %43, label %48

43:                                               ; preds = %35
  %44 = load ptr, ptr %7, align 8
  %45 = getelementptr inbounds %"struct.std::pair", ptr %44, i32 1
  store ptr %45, ptr %7, align 8
  %46 = load ptr, ptr %8, align 8
  %47 = getelementptr inbounds %"struct.std::pair", ptr %46, i32 1
  store ptr %47, ptr %8, align 8
  br label %13, !llvm.loop !8

48:                                               ; preds = %35, %30, %25
  %49 = load ptr, ptr %7, align 8
  %50 = load ptr, ptr %4, align 8
  %51 = call noundef ptr @_ZN4llvm25SmallVectorTemplateCommonISt4pairIPKN5clang4DeclEjEvE3endEv(ptr noundef nonnull align 8 dereferenceable(16) %50)
  %52 = icmp eq ptr %49, %51
  br i1 %52, label %53, label %54

53:                                               ; preds = %48
  br label %58

54:                                               ; preds = %48
  %55 = load ptr, ptr %7, align 8
  %56 = getelementptr inbounds nuw %"struct.std::pair", ptr %55, i32 0, i32 0
  %57 = load ptr, ptr %56, align 8
  br label %58

58:                                               ; preds = %54, %53
  %59 = phi ptr [ null, %53 ], [ %57, %54 ]
  %60 = getelementptr inbounds nuw %"struct.clang::ODRDiagsEmitter::DiffResult", ptr %0, i32 0, i32 0
  store ptr %59, ptr %60, align 8
  %61 = load ptr, ptr %8, align 8
  %62 = load ptr, ptr %5, align 8
  %63 = call noundef ptr @_ZN4llvm25SmallVectorTemplateCommonISt4pairIPKN5clang4DeclEjEvE3endEv(ptr noundef nonnull align 8 dereferenceable(16) %62)
  %64 = icmp eq ptr %61, %63
  br i1 %64, label %65, label %66

65:                                               ; preds = %58
  br label %70

66:                                               ; preds = %58
  %67 = load ptr, ptr %8, align 8
  %68 = getelementptr inbounds nuw %"struct.std::pair", ptr %67, i32 0, i32 0
  %69 = load ptr, ptr %68, align 8
  br label %70

70:                                               ; preds = %66, %65
  %71 = phi ptr [ null, %65 ], [ %69, %66 ]
  %72 = getelementptr inbounds nuw %"struct.clang::ODRDiagsEmitter::DiffResult", ptr %0, i32 0, i32 1
  store ptr %71, ptr %72, align 8
  %73 = getelementptr inbounds nuw %"struct.clang::ODRDiagsEmitter::DiffResult", ptr %0, i32 0, i32 0
  %74 = load ptr, ptr %73, align 8
  %75 = icmp ne ptr %74, null
  br i1 %75, label %76, label %80

76:                                               ; preds = %70
  %77 = getelementptr inbounds nuw %"struct.clang::ODRDiagsEmitter::DiffResult", ptr %0, i32 0, i32 0
  %78 = load ptr, ptr %77, align 8
  %79 = call noundef i32 @"_ZZN5clang15ODRDiagsEmitter13FindTypeDiffsERN4llvm11SmallVectorISt4pairIPKNS_4DeclEjELj4EEES9_ENK3$_0clES6_"(ptr noundef nonnull align 1 dereferenceable(1) %6, ptr noundef %78)
  br label %81

80:                                               ; preds = %70
  br label %81

81:                                               ; preds = %80, %76
  %82 = phi i32 [ %79, %76 ], [ 0, %80 ]
  %83 = getelementptr inbounds nuw %"struct.clang::ODRDiagsEmitter::DiffResult", ptr %0, i32 0, i32 2
  store i32 %82, ptr %83, align 8
  %84 = getelementptr inbounds nuw %"struct.clang::ODRDiagsEmitter::DiffResult", ptr %0, i32 0, i32 1
  %85 = load ptr, ptr %84, align 8
  %86 = icmp ne ptr %85, null
  br i1 %86, label %87, label %91

87:                                               ; preds = %81
  %88 = getelementptr inbounds nuw %"struct.clang::ODRDiagsEmitter::DiffResult", ptr %0, i32 0, i32 1
  %89 = load ptr, ptr %88, align 8
  %90 = call noundef i32 @"_ZZN5clang15ODRDiagsEmitter13FindTypeDiffsERN4llvm11SmallVectorISt4pairIPKNS_4DeclEjELj4EEES9_ENK3$_0clES6_"(ptr noundef nonnull align 1 dereferenceable(1) %6, ptr noundef %89)
  br label %92

91:                                               ; preds = %81
  br label %92

92:                                               ; preds = %91, %87
  %93 = phi i32 [ %90, %87 ], [ 0, %91 ]
  %94 = getelementptr inbounds nuw %"struct.clang::ODRDiagsEmitter::DiffResult", ptr %0, i32 0, i32 3
  store i32 %93, ptr %94, align 4
  br label %96

95:                                               ; preds = %23
  br label %96

96:                                               ; preds = %95, %92
  ret void
}