; Function Attrs: mustprogress nounwind uwtable
define dso_local void @_ZN5clang15ODRDiagsEmitter13FindTypeDiffsERN4llvm11SmallVectorISt4pairIPKNS_4DeclEjELj4EEES9_(ptr dead_on_unwind noalias writable writeonly sret(%"struct.clang::ODRDiagsEmitter::DiffResult") align 8 captures(none) initializes((0, 24)) %0, ptr noundef nonnull align 8 dereferenceable(80) %1, ptr noundef nonnull align 8 dereferenceable(80) %2) local_unnamed_addr #0 align 2 {
  %4 = getelementptr inbounds nuw i8, ptr %0, i64 16
  tail call void @llvm.memset.p0.i64(ptr noundef nonnull align 8 dereferenceable(24) %0, i8 0, i64 16, i1 false)
  store i32 15, ptr %4, align 8
  %5 = getelementptr inbounds nuw i8, ptr %0, i64 20
  store i32 15, ptr %5, align 4
  %6 = load ptr, ptr %1, align 8
  %7 = load ptr, ptr %2, align 8
  br label %8

8:                                                ; preds = %29, %3
  %9 = phi ptr [ %6, %3 ], [ %.pre, %29 ]
  %.020 = phi ptr [ %6, %3 ], [ %30, %29 ]
  %.0 = phi ptr [ %7, %3 ], [ %31, %29 ]
  %10 = tail call noundef i64 @_ZNK4llvm15SmallVectorBaseIjE4sizeEv(ptr noundef nonnull align 8 dereferenceable(16) %1) #17
  %11 = getelementptr inbounds %"struct.std::pair", ptr %9, i64 %10
  %.not = icmp eq ptr %.020, %11
  br i1 %.not, label %12, label %.critedge

12:                                               ; preds = %8
  %13 = load ptr, ptr %2, align 8
  %14 = tail call noundef i64 @_ZNK4llvm15SmallVectorBaseIjE4sizeEv(ptr noundef nonnull align 8 dereferenceable(16) %2) #17
  %15 = getelementptr inbounds %"struct.std::pair", ptr %13, i64 %14
  %.not23 = icmp eq ptr %.0, %15
  br i1 %.not23, label %.loopexit, label %.critedge

.critedge:                                        ; preds = %8, %12
  %16 = load ptr, ptr %1, align 8
  %17 = tail call noundef i64 @_ZNK4llvm15SmallVectorBaseIjE4sizeEv(ptr noundef nonnull align 8 dereferenceable(16) %1) #17
  %18 = getelementptr inbounds %"struct.std::pair", ptr %16, i64 %17
  %.not24 = icmp eq ptr %.020, %18
  br i1 %.not24, label %32, label %19

19:                                               ; preds = %.critedge
  %20 = load ptr, ptr %2, align 8
  %21 = tail call noundef i64 @_ZNK4llvm15SmallVectorBaseIjE4sizeEv(ptr noundef nonnull align 8 dereferenceable(16) %2) #17
  %22 = getelementptr inbounds %"struct.std::pair", ptr %20, i64 %21
  %.not25 = icmp eq ptr %.0, %22
  br i1 %.not25, label %32, label %23

23:                                               ; preds = %19
  %24 = getelementptr inbounds nuw i8, ptr %.020, i64 8
  %25 = load i32, ptr %24, align 8
  %26 = getelementptr inbounds nuw i8, ptr %.0, i64 8
  %27 = load i32, ptr %26, align 8
  %28 = icmp eq i32 %25, %27
  br i1 %28, label %29, label %32

29:                                               ; preds = %23
  %30 = getelementptr inbounds nuw i8, ptr %.020, i64 16
  %31 = getelementptr inbounds nuw i8, ptr %.0, i64 16
  %.pre = load ptr, ptr %1, align 8
  br label %8, !llvm.loop !93

32:                                               ; preds = %23, %19, %.critedge
  %33 = load ptr, ptr %1, align 8
  %34 = tail call noundef i64 @_ZNK4llvm15SmallVectorBaseIjE4sizeEv(ptr noundef nonnull align 8 dereferenceable(16) %1) #17
  %35 = getelementptr inbounds %"struct.std::pair", ptr %33, i64 %34
  %36 = icmp eq ptr %.020, %35
  br i1 %36, label %39, label %37

37:                                               ; preds = %32
  %38 = load ptr, ptr %.020, align 8
  br label %39

39:                                               ; preds = %32, %37
  %40 = phi ptr [ %38, %37 ], [ null, %32 ]
  store ptr %40, ptr %0, align 8
  %41 = load ptr, ptr %2, align 8
  %42 = tail call noundef i64 @_ZNK4llvm15SmallVectorBaseIjE4sizeEv(ptr noundef nonnull align 8 dereferenceable(16) %2) #17
  %43 = getelementptr inbounds %"struct.std::pair", ptr %41, i64 %42
  %44 = icmp eq ptr %.0, %43
  br i1 %44, label %47, label %45

45:                                               ; preds = %39
  %46 = load ptr, ptr %.0, align 8
  br label %47

47:                                               ; preds = %39, %45
  %48 = phi ptr [ %46, %45 ], [ null, %39 ]
  %49 = getelementptr inbounds nuw i8, ptr %0, i64 8
  store ptr %48, ptr %49, align 8
  %.not26 = icmp eq ptr %40, null
  br i1 %.not26, label %53, label %50

50:                                               ; preds = %47
  %51 = getelementptr i8, ptr %40, i64 28
  %.val = load i32, ptr %51, align 4
  %52 = tail call fastcc noundef i32 @"_ZZN5clang15ODRDiagsEmitter13FindTypeDiffsERN4llvm11SmallVectorISt4pairIPKNS_4DeclEjELj4EEES9_ENK3$_0clES6_"(i32 %.val)
  br label %53

53:                                               ; preds = %47, %50
  %54 = phi i32 [ %52, %50 ], [ 0, %47 ]
  store i32 %54, ptr %4, align 8
  %.not27 = icmp eq ptr %48, null
  br i1 %.not27, label %58, label %55

55:                                               ; preds = %53
  %56 = getelementptr i8, ptr %48, i64 28
  %.val28 = load i32, ptr %56, align 4
  %57 = tail call fastcc noundef i32 @"_ZZN5clang15ODRDiagsEmitter13FindTypeDiffsERN4llvm11SmallVectorISt4pairIPKNS_4DeclEjELj4EEES9_ENK3$_0clES6_"(i32 %.val28)
  br label %58

58:                                               ; preds = %53, %55
  %59 = phi i32 [ %57, %55 ], [ 0, %53 ]
  store i32 %59, ptr %5, align 4
  br label %.loopexit

.loopexit:                                        ; preds = %12, %58
  ret void
}